
icu_1.elf:     file format elf32-avr

Sections:
Idx Name          Size      VMA       LMA       File off  Algn
  0 .text         000009be  00000000  00000000  00000094  2**1
                  CONTENTS, ALLOC, LOAD, READONLY, CODE
  1 .data         00000016  00800060  000009be  00000a52  2**0
                  CONTENTS, ALLOC, LOAD, DATA
  2 .bss          0000000b  00800076  00800076  00000a68  2**0
                  ALLOC

Disassembly of section .text:

00000000 <__vectors>:
   0:	0c 94 2a 00 	jmp	0x54	; 0x54 <__ctors_end>
   4:	0c 94 52 02 	jmp	0x4a4	; 0x4a4 <__vector_1>
   8:	0c 94 47 00 	jmp	0x8e	; 0x8e <__bad_interrupt>
   c:	0c 94 47 00 	jmp	0x8e	; 0x8e <__bad_interrupt>
  10:	0c 94 47 00 	jmp	0x8e	; 0x8e <__bad_interrupt>
  14:	0c 94 47 00 	jmp	0x8e	; 0x8e <__bad_interrupt>
  18:	0c 94 92 04 	jmp	0x924	; 0x924 <__vector_6>
  1c:	0c 94 47 00 	jmp	0x8e	; 0x8e <__bad_interrupt>
  20:	0c 94 47 00 	jmp	0x8e	; 0x8e <__bad_interrupt>
  24:	0c 94 47 00 	jmp	0x8e	; 0x8e <__bad_interrupt>
  28:	0c 94 47 00 	jmp	0x8e	; 0x8e <__bad_interrupt>
  2c:	0c 94 4a 04 	jmp	0x894	; 0x894 <__vector_11>
  30:	0c 94 47 00 	jmp	0x8e	; 0x8e <__bad_interrupt>
  34:	0c 94 47 00 	jmp	0x8e	; 0x8e <__bad_interrupt>
  38:	0c 94 47 00 	jmp	0x8e	; 0x8e <__bad_interrupt>
  3c:	0c 94 47 00 	jmp	0x8e	; 0x8e <__bad_interrupt>
  40:	0c 94 47 00 	jmp	0x8e	; 0x8e <__bad_interrupt>
  44:	0c 94 47 00 	jmp	0x8e	; 0x8e <__bad_interrupt>
  48:	0c 94 47 00 	jmp	0x8e	; 0x8e <__bad_interrupt>
  4c:	0c 94 47 00 	jmp	0x8e	; 0x8e <__bad_interrupt>
  50:	0c 94 47 00 	jmp	0x8e	; 0x8e <__bad_interrupt>

00000054 <__ctors_end>:
  54:	11 24       	eor	r1, r1
  56:	1f be       	out	0x3f, r1	; 63
  58:	cf e5       	ldi	r28, 0x5F	; 95
  5a:	d8 e0       	ldi	r29, 0x08	; 8
  5c:	de bf       	out	0x3e, r29	; 62
  5e:	cd bf       	out	0x3d, r28	; 61

00000060 <__do_copy_data>:
  60:	10 e0       	ldi	r17, 0x00	; 0
  62:	a0 e6       	ldi	r26, 0x60	; 96
  64:	b0 e0       	ldi	r27, 0x00	; 0
  66:	ee eb       	ldi	r30, 0xBE	; 190
  68:	f9 e0       	ldi	r31, 0x09	; 9
  6a:	02 c0       	rjmp	.+4      	; 0x70 <.do_copy_data_start>

0000006c <.do_copy_data_loop>:
  6c:	05 90       	lpm	r0, Z+
  6e:	0d 92       	st	X+, r0

00000070 <.do_copy_data_start>:
  70:	a6 37       	cpi	r26, 0x76	; 118
  72:	b1 07       	cpc	r27, r17
  74:	d9 f7       	brne	.-10     	; 0x6c <.do_copy_data_loop>

00000076 <__do_clear_bss>:
  76:	10 e0       	ldi	r17, 0x00	; 0
  78:	a6 e7       	ldi	r26, 0x76	; 118
  7a:	b0 e0       	ldi	r27, 0x00	; 0
  7c:	01 c0       	rjmp	.+2      	; 0x80 <.do_clear_bss_start>

0000007e <.do_clear_bss_loop>:
  7e:	1d 92       	st	X+, r1

00000080 <.do_clear_bss_start>:
  80:	a1 38       	cpi	r26, 0x81	; 129
  82:	b1 07       	cpc	r27, r17
  84:	e1 f7       	brne	.-8      	; 0x7e <.do_clear_bss_loop>
  86:	0e 94 da 01 	call	0x3b4	; 0x3b4 <main>
  8a:	0c 94 dd 04 	jmp	0x9ba	; 0x9ba <_exit>

0000008e <__bad_interrupt>:
  8e:	0c 94 00 00 	jmp	0	; 0x0 <__vectors>

00000092 <DIO_voidSetPortDirection>:
  92:	81 30       	cpi	r24, 0x01	; 1
  94:	49 f0       	breq	.+18     	; 0xa8 <DIO_voidSetPortDirection+0x16>
  96:	81 30       	cpi	r24, 0x01	; 1
  98:	28 f0       	brcs	.+10     	; 0xa4 <DIO_voidSetPortDirection+0x12>
  9a:	82 30       	cpi	r24, 0x02	; 2
  9c:	39 f0       	breq	.+14     	; 0xac <DIO_voidSetPortDirection+0x1a>
  9e:	83 30       	cpi	r24, 0x03	; 3
  a0:	41 f4       	brne	.+16     	; 0xb2 <DIO_voidSetPortDirection+0x20>
  a2:	06 c0       	rjmp	.+12     	; 0xb0 <DIO_voidSetPortDirection+0x1e>
  a4:	6a bb       	out	0x1a, r22	; 26
  a6:	08 95       	ret
  a8:	67 bb       	out	0x17, r22	; 23
  aa:	08 95       	ret
  ac:	64 bb       	out	0x14, r22	; 20
  ae:	08 95       	ret
  b0:	61 bb       	out	0x11, r22	; 17
  b2:	08 95       	ret

000000b4 <DIO_voidSetPortValue>:
  b4:	81 30       	cpi	r24, 0x01	; 1
  b6:	49 f0       	breq	.+18     	; 0xca <DIO_voidSetPortValue+0x16>
  b8:	81 30       	cpi	r24, 0x01	; 1
  ba:	28 f0       	brcs	.+10     	; 0xc6 <DIO_voidSetPortValue+0x12>
  bc:	82 30       	cpi	r24, 0x02	; 2
  be:	39 f0       	breq	.+14     	; 0xce <DIO_voidSetPortValue+0x1a>
  c0:	83 30       	cpi	r24, 0x03	; 3
  c2:	41 f4       	brne	.+16     	; 0xd4 <DIO_voidSetPortValue+0x20>
  c4:	06 c0       	rjmp	.+12     	; 0xd2 <DIO_voidSetPortValue+0x1e>
  c6:	6b bb       	out	0x1b, r22	; 27
  c8:	08 95       	ret
  ca:	62 bb       	out	0x12, r22	; 18
  cc:	08 95       	ret
  ce:	65 bb       	out	0x15, r22	; 21
  d0:	08 95       	ret
  d2:	62 bb       	out	0x12, r22	; 18
  d4:	08 95       	ret

000000d6 <DIO_voidSetPinDirection>:
  d6:	68 30       	cpi	r22, 0x08	; 8
  d8:	08 f0       	brcs	.+2      	; 0xdc <DIO_voidSetPinDirection+0x6>
  da:	72 c0       	rjmp	.+228    	; 0x1c0 <DIO_voidSetPinDirection+0xea>
  dc:	41 30       	cpi	r20, 0x01	; 1
  de:	b1 f5       	brne	.+108    	; 0x14c <DIO_voidSetPinDirection+0x76>
  e0:	81 30       	cpi	r24, 0x01	; 1
  e2:	99 f0       	breq	.+38     	; 0x10a <DIO_voidSetPinDirection+0x34>
  e4:	81 30       	cpi	r24, 0x01	; 1
  e6:	30 f0       	brcs	.+12     	; 0xf4 <DIO_voidSetPinDirection+0x1e>
  e8:	82 30       	cpi	r24, 0x02	; 2
  ea:	d1 f0       	breq	.+52     	; 0x120 <DIO_voidSetPinDirection+0x4a>
  ec:	83 30       	cpi	r24, 0x03	; 3
  ee:	09 f0       	breq	.+2      	; 0xf2 <DIO_voidSetPinDirection+0x1c>
  f0:	67 c0       	rjmp	.+206    	; 0x1c0 <DIO_voidSetPinDirection+0xea>
  f2:	21 c0       	rjmp	.+66     	; 0x136 <DIO_voidSetPinDirection+0x60>
  f4:	2a b3       	in	r18, 0x1a	; 26
  f6:	81 e0       	ldi	r24, 0x01	; 1
  f8:	90 e0       	ldi	r25, 0x00	; 0
  fa:	02 c0       	rjmp	.+4      	; 0x100 <DIO_voidSetPinDirection+0x2a>
  fc:	88 0f       	add	r24, r24
  fe:	99 1f       	adc	r25, r25
 100:	6a 95       	dec	r22
 102:	e2 f7       	brpl	.-8      	; 0xfc <DIO_voidSetPinDirection+0x26>
 104:	28 2b       	or	r18, r24
 106:	2a bb       	out	0x1a, r18	; 26
 108:	08 95       	ret
 10a:	27 b3       	in	r18, 0x17	; 23
 10c:	81 e0       	ldi	r24, 0x01	; 1
 10e:	90 e0       	ldi	r25, 0x00	; 0
 110:	02 c0       	rjmp	.+4      	; 0x116 <DIO_voidSetPinDirection+0x40>
 112:	88 0f       	add	r24, r24
 114:	99 1f       	adc	r25, r25
 116:	6a 95       	dec	r22
 118:	e2 f7       	brpl	.-8      	; 0x112 <DIO_voidSetPinDirection+0x3c>
 11a:	28 2b       	or	r18, r24
 11c:	27 bb       	out	0x17, r18	; 23
 11e:	08 95       	ret
 120:	24 b3       	in	r18, 0x14	; 20
 122:	81 e0       	ldi	r24, 0x01	; 1
 124:	90 e0       	ldi	r25, 0x00	; 0
 126:	02 c0       	rjmp	.+4      	; 0x12c <DIO_voidSetPinDirection+0x56>
 128:	88 0f       	add	r24, r24
 12a:	99 1f       	adc	r25, r25
 12c:	6a 95       	dec	r22
 12e:	e2 f7       	brpl	.-8      	; 0x128 <DIO_voidSetPinDirection+0x52>
 130:	28 2b       	or	r18, r24
 132:	24 bb       	out	0x14, r18	; 20
 134:	08 95       	ret
 136:	21 b3       	in	r18, 0x11	; 17
 138:	81 e0       	ldi	r24, 0x01	; 1
 13a:	90 e0       	ldi	r25, 0x00	; 0
 13c:	02 c0       	rjmp	.+4      	; 0x142 <DIO_voidSetPinDirection+0x6c>
 13e:	88 0f       	add	r24, r24
 140:	99 1f       	adc	r25, r25
 142:	6a 95       	dec	r22
 144:	e2 f7       	brpl	.-8      	; 0x13e <DIO_voidSetPinDirection+0x68>
 146:	28 2b       	or	r18, r24
 148:	21 bb       	out	0x11, r18	; 17
 14a:	08 95       	ret
 14c:	44 23       	and	r20, r20
 14e:	c1 f5       	brne	.+112    	; 0x1c0 <DIO_voidSetPinDirection+0xea>
 150:	81 30       	cpi	r24, 0x01	; 1
 152:	99 f0       	breq	.+38     	; 0x17a <DIO_voidSetPinDirection+0xa4>
 154:	81 30       	cpi	r24, 0x01	; 1
 156:	28 f0       	brcs	.+10     	; 0x162 <DIO_voidSetPinDirection+0x8c>
 158:	82 30       	cpi	r24, 0x02	; 2
 15a:	d9 f0       	breq	.+54     	; 0x192 <DIO_voidSetPinDirection+0xbc>
 15c:	83 30       	cpi	r24, 0x03	; 3
 15e:	81 f5       	brne	.+96     	; 0x1c0 <DIO_voidSetPinDirection+0xea>
 160:	24 c0       	rjmp	.+72     	; 0x1aa <DIO_voidSetPinDirection+0xd4>
 162:	2a b3       	in	r18, 0x1a	; 26
 164:	81 e0       	ldi	r24, 0x01	; 1
 166:	90 e0       	ldi	r25, 0x00	; 0
 168:	02 c0       	rjmp	.+4      	; 0x16e <DIO_voidSetPinDirection+0x98>
 16a:	88 0f       	add	r24, r24
 16c:	99 1f       	adc	r25, r25
 16e:	6a 95       	dec	r22
 170:	e2 f7       	brpl	.-8      	; 0x16a <DIO_voidSetPinDirection+0x94>
 172:	80 95       	com	r24
 174:	82 23       	and	r24, r18
 176:	8a bb       	out	0x1a, r24	; 26
 178:	08 95       	ret
 17a:	27 b3       	in	r18, 0x17	; 23
 17c:	81 e0       	ldi	r24, 0x01	; 1
 17e:	90 e0       	ldi	r25, 0x00	; 0
 180:	02 c0       	rjmp	.+4      	; 0x186 <DIO_voidSetPinDirection+0xb0>
 182:	88 0f       	add	r24, r24
 184:	99 1f       	adc	r25, r25
 186:	6a 95       	dec	r22
 188:	e2 f7       	brpl	.-8      	; 0x182 <DIO_voidSetPinDirection+0xac>
 18a:	80 95       	com	r24
 18c:	82 23       	and	r24, r18
 18e:	87 bb       	out	0x17, r24	; 23
 190:	08 95       	ret
 192:	24 b3       	in	r18, 0x14	; 20
 194:	81 e0       	ldi	r24, 0x01	; 1
 196:	90 e0       	ldi	r25, 0x00	; 0
 198:	02 c0       	rjmp	.+4      	; 0x19e <DIO_voidSetPinDirection+0xc8>
 19a:	88 0f       	add	r24, r24
 19c:	99 1f       	adc	r25, r25
 19e:	6a 95       	dec	r22
 1a0:	e2 f7       	brpl	.-8      	; 0x19a <DIO_voidSetPinDirection+0xc4>
 1a2:	80 95       	com	r24
 1a4:	82 23       	and	r24, r18
 1a6:	84 bb       	out	0x14, r24	; 20
 1a8:	08 95       	ret
 1aa:	21 b3       	in	r18, 0x11	; 17
 1ac:	81 e0       	ldi	r24, 0x01	; 1
 1ae:	90 e0       	ldi	r25, 0x00	; 0
 1b0:	02 c0       	rjmp	.+4      	; 0x1b6 <DIO_voidSetPinDirection+0xe0>
 1b2:	88 0f       	add	r24, r24
 1b4:	99 1f       	adc	r25, r25
 1b6:	6a 95       	dec	r22
 1b8:	e2 f7       	brpl	.-8      	; 0x1b2 <DIO_voidSetPinDirection+0xdc>
 1ba:	80 95       	com	r24
 1bc:	82 23       	and	r24, r18
 1be:	81 bb       	out	0x11, r24	; 17
 1c0:	08 95       	ret

000001c2 <DIO_voidSetPinValue>:
 1c2:	68 30       	cpi	r22, 0x08	; 8
 1c4:	08 f0       	brcs	.+2      	; 0x1c8 <DIO_voidSetPinValue+0x6>
 1c6:	72 c0       	rjmp	.+228    	; 0x2ac <DIO_voidSetPinValue+0xea>
 1c8:	41 30       	cpi	r20, 0x01	; 1
 1ca:	b1 f5       	brne	.+108    	; 0x238 <DIO_voidSetPinValue+0x76>
 1cc:	81 30       	cpi	r24, 0x01	; 1
 1ce:	99 f0       	breq	.+38     	; 0x1f6 <DIO_voidSetPinValue+0x34>
 1d0:	81 30       	cpi	r24, 0x01	; 1
 1d2:	30 f0       	brcs	.+12     	; 0x1e0 <DIO_voidSetPinValue+0x1e>
 1d4:	82 30       	cpi	r24, 0x02	; 2
 1d6:	d1 f0       	breq	.+52     	; 0x20c <DIO_voidSetPinValue+0x4a>
 1d8:	83 30       	cpi	r24, 0x03	; 3
 1da:	09 f0       	breq	.+2      	; 0x1de <DIO_voidSetPinValue+0x1c>
 1dc:	67 c0       	rjmp	.+206    	; 0x2ac <DIO_voidSetPinValue+0xea>
 1de:	21 c0       	rjmp	.+66     	; 0x222 <DIO_voidSetPinValue+0x60>
 1e0:	2b b3       	in	r18, 0x1b	; 27
 1e2:	81 e0       	ldi	r24, 0x01	; 1
 1e4:	90 e0       	ldi	r25, 0x00	; 0
 1e6:	02 c0       	rjmp	.+4      	; 0x1ec <DIO_voidSetPinValue+0x2a>
 1e8:	88 0f       	add	r24, r24
 1ea:	99 1f       	adc	r25, r25
 1ec:	6a 95       	dec	r22
 1ee:	e2 f7       	brpl	.-8      	; 0x1e8 <DIO_voidSetPinValue+0x26>
 1f0:	28 2b       	or	r18, r24
 1f2:	2b bb       	out	0x1b, r18	; 27
 1f4:	08 95       	ret
 1f6:	28 b3       	in	r18, 0x18	; 24
 1f8:	81 e0       	ldi	r24, 0x01	; 1
 1fa:	90 e0       	ldi	r25, 0x00	; 0
 1fc:	02 c0       	rjmp	.+4      	; 0x202 <DIO_voidSetPinValue+0x40>
 1fe:	88 0f       	add	r24, r24
 200:	99 1f       	adc	r25, r25
 202:	6a 95       	dec	r22
 204:	e2 f7       	brpl	.-8      	; 0x1fe <DIO_voidSetPinValue+0x3c>
 206:	28 2b       	or	r18, r24
 208:	28 bb       	out	0x18, r18	; 24
 20a:	08 95       	ret
 20c:	25 b3       	in	r18, 0x15	; 21
 20e:	81 e0       	ldi	r24, 0x01	; 1
 210:	90 e0       	ldi	r25, 0x00	; 0
 212:	02 c0       	rjmp	.+4      	; 0x218 <DIO_voidSetPinValue+0x56>
 214:	88 0f       	add	r24, r24
 216:	99 1f       	adc	r25, r25
 218:	6a 95       	dec	r22
 21a:	e2 f7       	brpl	.-8      	; 0x214 <DIO_voidSetPinValue+0x52>
 21c:	28 2b       	or	r18, r24
 21e:	25 bb       	out	0x15, r18	; 21
 220:	08 95       	ret
 222:	22 b3       	in	r18, 0x12	; 18
 224:	81 e0       	ldi	r24, 0x01	; 1
 226:	90 e0       	ldi	r25, 0x00	; 0
 228:	02 c0       	rjmp	.+4      	; 0x22e <DIO_voidSetPinValue+0x6c>
 22a:	88 0f       	add	r24, r24
 22c:	99 1f       	adc	r25, r25
 22e:	6a 95       	dec	r22
 230:	e2 f7       	brpl	.-8      	; 0x22a <DIO_voidSetPinValue+0x68>
 232:	28 2b       	or	r18, r24
 234:	22 bb       	out	0x12, r18	; 18
 236:	08 95       	ret
 238:	44 23       	and	r20, r20
 23a:	c1 f5       	brne	.+112    	; 0x2ac <DIO_voidSetPinValue+0xea>
 23c:	81 30       	cpi	r24, 0x01	; 1
 23e:	99 f0       	breq	.+38     	; 0x266 <DIO_voidSetPinValue+0xa4>
 240:	81 30       	cpi	r24, 0x01	; 1
 242:	28 f0       	brcs	.+10     	; 0x24e <DIO_voidSetPinValue+0x8c>
 244:	82 30       	cpi	r24, 0x02	; 2
 246:	d9 f0       	breq	.+54     	; 0x27e <DIO_voidSetPinValue+0xbc>
 248:	83 30       	cpi	r24, 0x03	; 3
 24a:	81 f5       	brne	.+96     	; 0x2ac <DIO_voidSetPinValue+0xea>
 24c:	24 c0       	rjmp	.+72     	; 0x296 <DIO_voidSetPinValue+0xd4>
 24e:	2b b3       	in	r18, 0x1b	; 27
 250:	81 e0       	ldi	r24, 0x01	; 1
 252:	90 e0       	ldi	r25, 0x00	; 0
 254:	02 c0       	rjmp	.+4      	; 0x25a <DIO_voidSetPinValue+0x98>
 256:	88 0f       	add	r24, r24
 258:	99 1f       	adc	r25, r25
 25a:	6a 95       	dec	r22
 25c:	e2 f7       	brpl	.-8      	; 0x256 <DIO_voidSetPinValue+0x94>
 25e:	80 95       	com	r24
 260:	82 23       	and	r24, r18
 262:	8b bb       	out	0x1b, r24	; 27
 264:	08 95       	ret
 266:	28 b3       	in	r18, 0x18	; 24
 268:	81 e0       	ldi	r24, 0x01	; 1
 26a:	90 e0       	ldi	r25, 0x00	; 0
 26c:	02 c0       	rjmp	.+4      	; 0x272 <DIO_voidSetPinValue+0xb0>
 26e:	88 0f       	add	r24, r24
 270:	99 1f       	adc	r25, r25
 272:	6a 95       	dec	r22
 274:	e2 f7       	brpl	.-8      	; 0x26e <DIO_voidSetPinValue+0xac>
 276:	80 95       	com	r24
 278:	82 23       	and	r24, r18
 27a:	88 bb       	out	0x18, r24	; 24
 27c:	08 95       	ret
 27e:	25 b3       	in	r18, 0x15	; 21
 280:	81 e0       	ldi	r24, 0x01	; 1
 282:	90 e0       	ldi	r25, 0x00	; 0
 284:	02 c0       	rjmp	.+4      	; 0x28a <DIO_voidSetPinValue+0xc8>
 286:	88 0f       	add	r24, r24
 288:	99 1f       	adc	r25, r25
 28a:	6a 95       	dec	r22
 28c:	e2 f7       	brpl	.-8      	; 0x286 <DIO_voidSetPinValue+0xc4>
 28e:	80 95       	com	r24
 290:	82 23       	and	r24, r18
 292:	85 bb       	out	0x15, r24	; 21
 294:	08 95       	ret
 296:	22 b3       	in	r18, 0x12	; 18
 298:	81 e0       	ldi	r24, 0x01	; 1
 29a:	90 e0       	ldi	r25, 0x00	; 0
 29c:	02 c0       	rjmp	.+4      	; 0x2a2 <DIO_voidSetPinValue+0xe0>
 29e:	88 0f       	add	r24, r24
 2a0:	99 1f       	adc	r25, r25
 2a2:	6a 95       	dec	r22
 2a4:	e2 f7       	brpl	.-8      	; 0x29e <DIO_voidSetPinValue+0xdc>
 2a6:	80 95       	com	r24
 2a8:	82 23       	and	r24, r18
 2aa:	82 bb       	out	0x12, r24	; 18
 2ac:	08 95       	ret

000002ae <DIO_voidGetBitValue>:
 2ae:	81 30       	cpi	r24, 0x01	; 1
 2b0:	49 f0       	breq	.+18     	; 0x2c4 <DIO_voidGetBitValue+0x16>
 2b2:	81 30       	cpi	r24, 0x01	; 1
 2b4:	28 f0       	brcs	.+10     	; 0x2c0 <DIO_voidGetBitValue+0x12>
 2b6:	82 30       	cpi	r24, 0x02	; 2
 2b8:	39 f0       	breq	.+14     	; 0x2c8 <DIO_voidGetBitValue+0x1a>
 2ba:	83 30       	cpi	r24, 0x03	; 3
 2bc:	b1 f4       	brne	.+44     	; 0x2ea <DIO_voidGetBitValue+0x3c>
 2be:	0d c0       	rjmp	.+26     	; 0x2da <DIO_voidGetBitValue+0x2c>
 2c0:	89 b3       	in	r24, 0x19	; 25
 2c2:	03 c0       	rjmp	.+6      	; 0x2ca <DIO_voidGetBitValue+0x1c>
 2c4:	86 b3       	in	r24, 0x16	; 22
 2c6:	01 c0       	rjmp	.+2      	; 0x2ca <DIO_voidGetBitValue+0x1c>
 2c8:	83 b3       	in	r24, 0x13	; 19
 2ca:	90 e0       	ldi	r25, 0x00	; 0
 2cc:	02 c0       	rjmp	.+4      	; 0x2d2 <DIO_voidGetBitValue+0x24>
 2ce:	95 95       	asr	r25
 2d0:	87 95       	ror	r24
 2d2:	6a 95       	dec	r22
 2d4:	e2 f7       	brpl	.-8      	; 0x2ce <DIO_voidGetBitValue+0x20>
 2d6:	81 70       	andi	r24, 0x01	; 1
 2d8:	08 95       	ret
 2da:	80 b3       	in	r24, 0x10	; 16
 2dc:	90 e0       	ldi	r25, 0x00	; 0
 2de:	02 c0       	rjmp	.+4      	; 0x2e4 <DIO_voidGetBitValue+0x36>
 2e0:	95 95       	asr	r25
 2e2:	87 95       	ror	r24
 2e4:	6a 95       	dec	r22
 2e6:	e2 f7       	brpl	.-8      	; 0x2e0 <DIO_voidGetBitValue+0x32>
 2e8:	81 70       	andi	r24, 0x01	; 1
 2ea:	08 95       	ret

000002ec <DIO_voidToggelPin>:
 2ec:	81 30       	cpi	r24, 0x01	; 1
 2ee:	91 f0       	breq	.+36     	; 0x314 <DIO_voidToggelPin+0x28>
 2f0:	81 30       	cpi	r24, 0x01	; 1
 2f2:	28 f0       	brcs	.+10     	; 0x2fe <DIO_voidToggelPin+0x12>
 2f4:	82 30       	cpi	r24, 0x02	; 2
 2f6:	c9 f0       	breq	.+50     	; 0x32a <DIO_voidToggelPin+0x3e>
 2f8:	83 30       	cpi	r24, 0x03	; 3
 2fa:	61 f5       	brne	.+88     	; 0x354 <DIO_voidToggelPin+0x68>
 2fc:	21 c0       	rjmp	.+66     	; 0x340 <DIO_voidToggelPin+0x54>
 2fe:	2b b3       	in	r18, 0x1b	; 27
 300:	81 e0       	ldi	r24, 0x01	; 1
 302:	90 e0       	ldi	r25, 0x00	; 0
 304:	02 c0       	rjmp	.+4      	; 0x30a <DIO_voidToggelPin+0x1e>
 306:	88 0f       	add	r24, r24
 308:	99 1f       	adc	r25, r25
 30a:	6a 95       	dec	r22
 30c:	e2 f7       	brpl	.-8      	; 0x306 <DIO_voidToggelPin+0x1a>
 30e:	28 27       	eor	r18, r24
 310:	2b bb       	out	0x1b, r18	; 27
 312:	08 95       	ret
 314:	28 b3       	in	r18, 0x18	; 24
 316:	81 e0       	ldi	r24, 0x01	; 1
 318:	90 e0       	ldi	r25, 0x00	; 0
 31a:	02 c0       	rjmp	.+4      	; 0x320 <DIO_voidToggelPin+0x34>
 31c:	88 0f       	add	r24, r24
 31e:	99 1f       	adc	r25, r25
 320:	6a 95       	dec	r22
 322:	e2 f7       	brpl	.-8      	; 0x31c <DIO_voidToggelPin+0x30>
 324:	28 27       	eor	r18, r24
 326:	28 bb       	out	0x18, r18	; 24
 328:	08 95       	ret
 32a:	25 b3       	in	r18, 0x15	; 21
 32c:	81 e0       	ldi	r24, 0x01	; 1
 32e:	90 e0       	ldi	r25, 0x00	; 0
 330:	02 c0       	rjmp	.+4      	; 0x336 <DIO_voidToggelPin+0x4a>
 332:	88 0f       	add	r24, r24
 334:	99 1f       	adc	r25, r25
 336:	6a 95       	dec	r22
 338:	e2 f7       	brpl	.-8      	; 0x332 <DIO_voidToggelPin+0x46>
 33a:	28 27       	eor	r18, r24
 33c:	25 bb       	out	0x15, r18	; 21
 33e:	08 95       	ret
 340:	22 b3       	in	r18, 0x12	; 18
 342:	81 e0       	ldi	r24, 0x01	; 1
 344:	90 e0       	ldi	r25, 0x00	; 0
 346:	02 c0       	rjmp	.+4      	; 0x34c <DIO_voidToggelPin+0x60>
 348:	88 0f       	add	r24, r24
 34a:	99 1f       	adc	r25, r25
 34c:	6a 95       	dec	r22
 34e:	e2 f7       	brpl	.-8      	; 0x348 <DIO_voidToggelPin+0x5c>
 350:	28 27       	eor	r18, r24
 352:	22 bb       	out	0x12, r18	; 18
 354:	08 95       	ret

00000356 <GIE_voidEanble>:
 356:	8f b7       	in	r24, 0x3f	; 63
 358:	80 68       	ori	r24, 0x80	; 128
 35a:	8f bf       	out	0x3f, r24	; 63
 35c:	08 95       	ret

0000035e <GIE_voidDisable>:
 35e:	8f b7       	in	r24, 0x3f	; 63
 360:	8f 77       	andi	r24, 0x7F	; 127
 362:	8f bf       	out	0x3f, r24	; 63
 364:	08 95       	ret

00000366 <ISR_ICU>:
 366:	80 91 7a 00 	lds	r24, 0x007A
 36a:	8f 5f       	subi	r24, 0xFF	; 255
 36c:	80 93 7a 00 	sts	0x007A, r24
 370:	81 30       	cpi	r24, 0x01	; 1
 372:	19 f4       	brne	.+6      	; 0x37a <ISR_ICU+0x14>
 374:	0e 94 7d 04 	call	0x8fa	; 0x8fa <Timer1_voidClear>
 378:	08 95       	ret
 37a:	82 30       	cpi	r24, 0x02	; 2
 37c:	51 f4       	brne	.+20     	; 0x392 <ISR_ICU+0x2c>
 37e:	0e 94 87 04 	call	0x90e	; 0x90e <Timer1_u16GetTimerReading>
 382:	90 93 77 00 	sts	0x0077, r25
 386:	80 93 76 00 	sts	0x0076, r24
 38a:	81 e0       	ldi	r24, 0x01	; 1
 38c:	0e 94 38 02 	call	0x470	; 0x470 <INT0_LatchMode>
 390:	08 95       	ret
 392:	83 30       	cpi	r24, 0x03	; 3
 394:	71 f4       	brne	.+28     	; 0x3b2 <ISR_ICU+0x4c>
 396:	0e 94 87 04 	call	0x90e	; 0x90e <Timer1_u16GetTimerReading>
 39a:	20 91 76 00 	lds	r18, 0x0076
 39e:	30 91 77 00 	lds	r19, 0x0077
 3a2:	82 1b       	sub	r24, r18
 3a4:	93 0b       	sbc	r25, r19
 3a6:	90 93 79 00 	sts	0x0079, r25
 3aa:	80 93 78 00 	sts	0x0078, r24
 3ae:	0e 94 34 02 	call	0x468	; 0x468 <INT0_Disable>
 3b2:	08 95       	ret

000003b4 <main>:
 3b4:	83 e0       	ldi	r24, 0x03	; 3
 3b6:	62 e0       	ldi	r22, 0x02	; 2
 3b8:	40 e0       	ldi	r20, 0x00	; 0
 3ba:	0e 94 6b 00 	call	0xd6	; 0xd6 <DIO_voidSetPinDirection>
 3be:	83 e0       	ldi	r24, 0x03	; 3
 3c0:	62 e0       	ldi	r22, 0x02	; 2
 3c2:	40 e0       	ldi	r20, 0x00	; 0
 3c4:	0e 94 e1 00 	call	0x1c2	; 0x1c2 <DIO_voidSetPinValue>
 3c8:	81 e0       	ldi	r24, 0x01	; 1
 3ca:	63 e0       	ldi	r22, 0x03	; 3
 3cc:	41 e0       	ldi	r20, 0x01	; 1
 3ce:	0e 94 6b 00 	call	0xd6	; 0xd6 <DIO_voidSetPinDirection>
 3d2:	81 e0       	ldi	r24, 0x01	; 1
 3d4:	63 e0       	ldi	r22, 0x03	; 3
 3d6:	40 e0       	ldi	r20, 0x00	; 0
 3d8:	0e 94 e1 00 	call	0x1c2	; 0x1c2 <DIO_voidSetPinValue>
 3dc:	0e 94 de 03 	call	0x7bc	; 0x7bc <LCD_voidInit>
 3e0:	0e 94 21 04 	call	0x842	; 0x842 <TIMER0_voidInit>
 3e4:	0e 94 71 04 	call	0x8e2	; 0x8e2 <Timer1_voidInit>
 3e8:	83 eb       	ldi	r24, 0xB3	; 179
 3ea:	91 e0       	ldi	r25, 0x01	; 1
 3ec:	0e 94 4b 02 	call	0x496	; 0x496 <NTI0_SetCallBack>
 3f0:	0e 94 29 02 	call	0x452	; 0x452 <INT0_Init>
 3f4:	0e 94 ab 01 	call	0x356	; 0x356 <GIE_voidEanble>
 3f8:	80 91 76 00 	lds	r24, 0x0076
 3fc:	90 91 77 00 	lds	r25, 0x0077
 400:	89 2b       	or	r24, r25
 402:	31 f4       	brne	.+12     	; 0x410 <main+0x5c>
 404:	80 91 78 00 	lds	r24, 0x0078
 408:	90 91 79 00 	lds	r25, 0x0079
 40c:	89 2b       	or	r24, r25
 40e:	a1 f3       	breq	.-24     	; 0x3f8 <main+0x44>
 410:	80 e0       	ldi	r24, 0x00	; 0
 412:	60 e0       	ldi	r22, 0x00	; 0
 414:	0e 94 f9 02 	call	0x5f2	; 0x5f2 <LCD_voidGoToXY>
 418:	80 e6       	ldi	r24, 0x60	; 96
 41a:	90 e0       	ldi	r25, 0x00	; 0
 41c:	0e 94 c5 03 	call	0x78a	; 0x78a <LCD_voidWriteString>
 420:	60 91 78 00 	lds	r22, 0x0078
 424:	70 91 79 00 	lds	r23, 0x0079
 428:	80 e0       	ldi	r24, 0x00	; 0
 42a:	90 e0       	ldi	r25, 0x00	; 0
 42c:	0e 94 2b 03 	call	0x656	; 0x656 <LCD_voidWriteNumber>
 430:	81 e0       	ldi	r24, 0x01	; 1
 432:	60 e0       	ldi	r22, 0x00	; 0
 434:	0e 94 f9 02 	call	0x5f2	; 0x5f2 <LCD_voidGoToXY>
 438:	88 e6       	ldi	r24, 0x68	; 104
 43a:	90 e0       	ldi	r25, 0x00	; 0
 43c:	0e 94 c5 03 	call	0x78a	; 0x78a <LCD_voidWriteString>
 440:	60 91 76 00 	lds	r22, 0x0076
 444:	70 91 77 00 	lds	r23, 0x0077
 448:	80 e0       	ldi	r24, 0x00	; 0
 44a:	90 e0       	ldi	r25, 0x00	; 0
 44c:	0e 94 2b 03 	call	0x656	; 0x656 <LCD_voidWriteNumber>
 450:	d3 cf       	rjmp	.-90     	; 0x3f8 <main+0x44>

00000452 <INT0_Init>:
 452:	85 b7       	in	r24, 0x35	; 53
 454:	81 60       	ori	r24, 0x01	; 1
 456:	85 bf       	out	0x35, r24	; 53
 458:	85 b7       	in	r24, 0x35	; 53
 45a:	82 60       	ori	r24, 0x02	; 2
 45c:	85 bf       	out	0x35, r24	; 53
 45e:	08 95       	ret

00000460 <INT0_Enable>:
 460:	8b b7       	in	r24, 0x3b	; 59
 462:	80 64       	ori	r24, 0x40	; 64
 464:	8b bf       	out	0x3b, r24	; 59
 466:	08 95       	ret

00000468 <INT0_Disable>:
 468:	8b b7       	in	r24, 0x3b	; 59
 46a:	8f 7b       	andi	r24, 0xBF	; 191
 46c:	8b bf       	out	0x3b, r24	; 59
 46e:	08 95       	ret

00000470 <INT0_LatchMode>:
 470:	88 23       	and	r24, r24
 472:	19 f0       	breq	.+6      	; 0x47a <INT0_LatchMode+0xa>
 474:	81 30       	cpi	r24, 0x01	; 1
 476:	71 f4       	brne	.+28     	; 0x494 <INT0_LatchMode+0x24>
 478:	07 c0       	rjmp	.+14     	; 0x488 <INT0_LatchMode+0x18>
 47a:	85 b7       	in	r24, 0x35	; 53
 47c:	81 60       	ori	r24, 0x01	; 1
 47e:	85 bf       	out	0x35, r24	; 53
 480:	85 b7       	in	r24, 0x35	; 53
 482:	8d 7f       	andi	r24, 0xFD	; 253
 484:	85 bf       	out	0x35, r24	; 53
 486:	08 95       	ret
 488:	85 b7       	in	r24, 0x35	; 53
 48a:	81 60       	ori	r24, 0x01	; 1
 48c:	85 bf       	out	0x35, r24	; 53
 48e:	85 b7       	in	r24, 0x35	; 53
 490:	82 60       	ori	r24, 0x02	; 2
 492:	85 bf       	out	0x35, r24	; 53
 494:	08 95       	ret

00000496 <NTI0_SetCallBack>:
 496:	00 97       	sbiw	r24, 0x00	; 0
 498:	21 f0       	breq	.+8      	; 0x4a2 <NTI0_SetCallBack+0xc>
 49a:	90 93 7c 00 	sts	0x007C, r25
 49e:	80 93 7b 00 	sts	0x007B, r24
 4a2:	08 95       	ret

000004a4 <__vector_1>:
 4a4:	1f 92       	push	r1
 4a6:	0f 92       	push	r0
 4a8:	0f b6       	in	r0, 0x3f	; 63
 4aa:	0f 92       	push	r0
 4ac:	11 24       	eor	r1, r1
 4ae:	2f 93       	push	r18
 4b0:	3f 93       	push	r19
 4b2:	4f 93       	push	r20
 4b4:	5f 93       	push	r21
 4b6:	6f 93       	push	r22
 4b8:	7f 93       	push	r23
 4ba:	8f 93       	push	r24
 4bc:	9f 93       	push	r25
 4be:	af 93       	push	r26
 4c0:	bf 93       	push	r27
 4c2:	ef 93       	push	r30
 4c4:	ff 93       	push	r31
 4c6:	e0 91 7b 00 	lds	r30, 0x007B
 4ca:	f0 91 7c 00 	lds	r31, 0x007C
 4ce:	09 95       	icall
 4d0:	ff 91       	pop	r31
 4d2:	ef 91       	pop	r30
 4d4:	bf 91       	pop	r27
 4d6:	af 91       	pop	r26
 4d8:	9f 91       	pop	r25
 4da:	8f 91       	pop	r24
 4dc:	7f 91       	pop	r23
 4de:	6f 91       	pop	r22
 4e0:	5f 91       	pop	r21
 4e2:	4f 91       	pop	r20
 4e4:	3f 91       	pop	r19
 4e6:	2f 91       	pop	r18
 4e8:	0f 90       	pop	r0
 4ea:	0f be       	out	0x3f, r0	; 63
 4ec:	0f 90       	pop	r0
 4ee:	1f 90       	pop	r1
 4f0:	18 95       	reti

000004f2 <LCD_voidWriteBitsToSend>:
 4f2:	1f 93       	push	r17
 4f4:	18 2f       	mov	r17, r24
 4f6:	80 e0       	ldi	r24, 0x00	; 0
 4f8:	62 e0       	ldi	r22, 0x02	; 2
 4fa:	40 e0       	ldi	r20, 0x00	; 0
 4fc:	0e 94 e1 00 	call	0x1c2	; 0x1c2 <DIO_voidSetPinValue>
 500:	41 2f       	mov	r20, r17
 502:	44 1f       	adc	r20, r20
 504:	44 27       	eor	r20, r20
 506:	44 1f       	adc	r20, r20
 508:	81 e0       	ldi	r24, 0x01	; 1
 50a:	64 e0       	ldi	r22, 0x04	; 4
 50c:	0e 94 e1 00 	call	0x1c2	; 0x1c2 <DIO_voidSetPinValue>
 510:	41 2f       	mov	r20, r17
 512:	42 95       	swap	r20
 514:	46 95       	lsr	r20
 516:	46 95       	lsr	r20
 518:	41 70       	andi	r20, 0x01	; 1
 51a:	81 e0       	ldi	r24, 0x01	; 1
 51c:	62 e0       	ldi	r22, 0x02	; 2
 51e:	0e 94 e1 00 	call	0x1c2	; 0x1c2 <DIO_voidSetPinValue>
 522:	41 2f       	mov	r20, r17
 524:	42 95       	swap	r20
 526:	46 95       	lsr	r20
 528:	41 70       	andi	r20, 0x01	; 1
 52a:	81 e0       	ldi	r24, 0x01	; 1
 52c:	61 e0       	ldi	r22, 0x01	; 1
 52e:	0e 94 e1 00 	call	0x1c2	; 0x1c2 <DIO_voidSetPinValue>
 532:	41 2f       	mov	r20, r17
 534:	42 95       	swap	r20
 536:	41 70       	andi	r20, 0x01	; 1
 538:	81 e0       	ldi	r24, 0x01	; 1
 53a:	60 e0       	ldi	r22, 0x00	; 0
 53c:	0e 94 e1 00 	call	0x1c2	; 0x1c2 <DIO_voidSetPinValue>
 540:	80 e0       	ldi	r24, 0x00	; 0
 542:	62 e0       	ldi	r22, 0x02	; 2
 544:	41 e0       	ldi	r20, 0x01	; 1
 546:	0e 94 e1 00 	call	0x1c2	; 0x1c2 <DIO_voidSetPinValue>
 54a:	80 ea       	ldi	r24, 0xA0	; 160
 54c:	9f e0       	ldi	r25, 0x0F	; 15
 54e:	01 97       	sbiw	r24, 0x01	; 1
 550:	f1 f7       	brne	.-4      	; 0x54e <LCD_voidWriteBitsToSend+0x5c>
 552:	80 e0       	ldi	r24, 0x00	; 0
 554:	62 e0       	ldi	r22, 0x02	; 2
 556:	40 e0       	ldi	r20, 0x00	; 0
 558:	0e 94 e1 00 	call	0x1c2	; 0x1c2 <DIO_voidSetPinValue>
 55c:	8c e2       	ldi	r24, 0x2C	; 44
 55e:	91 e0       	ldi	r25, 0x01	; 1
 560:	20 e9       	ldi	r18, 0x90	; 144
 562:	31 e0       	ldi	r19, 0x01	; 1
 564:	f9 01       	movw	r30, r18
 566:	31 97       	sbiw	r30, 0x01	; 1
 568:	f1 f7       	brne	.-4      	; 0x566 <LCD_voidWriteBitsToSend+0x74>
 56a:	01 97       	sbiw	r24, 0x01	; 1
 56c:	d9 f7       	brne	.-10     	; 0x564 <LCD_voidWriteBitsToSend+0x72>
 56e:	41 2f       	mov	r20, r17
 570:	46 95       	lsr	r20
 572:	46 95       	lsr	r20
 574:	46 95       	lsr	r20
 576:	41 70       	andi	r20, 0x01	; 1
 578:	81 e0       	ldi	r24, 0x01	; 1
 57a:	64 e0       	ldi	r22, 0x04	; 4
 57c:	0e 94 e1 00 	call	0x1c2	; 0x1c2 <DIO_voidSetPinValue>
 580:	41 2f       	mov	r20, r17
 582:	46 95       	lsr	r20
 584:	46 95       	lsr	r20
 586:	41 70       	andi	r20, 0x01	; 1
 588:	81 e0       	ldi	r24, 0x01	; 1
 58a:	62 e0       	ldi	r22, 0x02	; 2
 58c:	0e 94 e1 00 	call	0x1c2	; 0x1c2 <DIO_voidSetPinValue>
 590:	41 2f       	mov	r20, r17
 592:	46 95       	lsr	r20
 594:	41 70       	andi	r20, 0x01	; 1
 596:	81 e0       	ldi	r24, 0x01	; 1
 598:	61 e0       	ldi	r22, 0x01	; 1
 59a:	0e 94 e1 00 	call	0x1c2	; 0x1c2 <DIO_voidSetPinValue>
 59e:	11 70       	andi	r17, 0x01	; 1
 5a0:	81 e0       	ldi	r24, 0x01	; 1
 5a2:	60 e0       	ldi	r22, 0x00	; 0
 5a4:	41 2f       	mov	r20, r17
 5a6:	0e 94 e1 00 	call	0x1c2	; 0x1c2 <DIO_voidSetPinValue>
 5aa:	80 e0       	ldi	r24, 0x00	; 0
 5ac:	62 e0       	ldi	r22, 0x02	; 2
 5ae:	41 e0       	ldi	r20, 0x01	; 1
 5b0:	0e 94 e1 00 	call	0x1c2	; 0x1c2 <DIO_voidSetPinValue>
 5b4:	80 ea       	ldi	r24, 0xA0	; 160
 5b6:	9f e0       	ldi	r25, 0x0F	; 15
 5b8:	01 97       	sbiw	r24, 0x01	; 1
 5ba:	f1 f7       	brne	.-4      	; 0x5b8 <LCD_voidWriteBitsToSend+0xc6>
 5bc:	80 e0       	ldi	r24, 0x00	; 0
 5be:	62 e0       	ldi	r22, 0x02	; 2
 5c0:	40 e0       	ldi	r20, 0x00	; 0
 5c2:	0e 94 e1 00 	call	0x1c2	; 0x1c2 <DIO_voidSetPinValue>
 5c6:	80 e6       	ldi	r24, 0x60	; 96
 5c8:	9a ee       	ldi	r25, 0xEA	; 234
 5ca:	01 97       	sbiw	r24, 0x01	; 1
 5cc:	f1 f7       	brne	.-4      	; 0x5ca <LCD_voidWriteBitsToSend+0xd8>
 5ce:	1f 91       	pop	r17
 5d0:	08 95       	ret

000005d2 <LCD_voidWriteCommand>:
 5d2:	1f 93       	push	r17
 5d4:	18 2f       	mov	r17, r24
 5d6:	80 e0       	ldi	r24, 0x00	; 0
 5d8:	63 e0       	ldi	r22, 0x03	; 3
 5da:	40 e0       	ldi	r20, 0x00	; 0
 5dc:	0e 94 e1 00 	call	0x1c2	; 0x1c2 <DIO_voidSetPinValue>
 5e0:	81 2f       	mov	r24, r17
 5e2:	0e 94 79 02 	call	0x4f2	; 0x4f2 <LCD_voidWriteBitsToSend>
 5e6:	1f 91       	pop	r17
 5e8:	08 95       	ret

000005ea <LCD_voidClear>:
 5ea:	81 e0       	ldi	r24, 0x01	; 1
 5ec:	0e 94 e9 02 	call	0x5d2	; 0x5d2 <LCD_voidWriteCommand>
 5f0:	08 95       	ret

000005f2 <LCD_voidGoToXY>:
 5f2:	df 93       	push	r29
 5f4:	cf 93       	push	r28
 5f6:	00 d0       	rcall	.+0      	; 0x5f8 <LCD_voidGoToXY+0x6>
 5f8:	00 d0       	rcall	.+0      	; 0x5fa <LCD_voidGoToXY+0x8>
 5fa:	cd b7       	in	r28, 0x3d	; 61
 5fc:	de b7       	in	r29, 0x3e	; 62
 5fe:	19 82       	std	Y+1, r1	; 0x01
 600:	90 e4       	ldi	r25, 0x40	; 64
 602:	9a 83       	std	Y+2, r25	; 0x02
 604:	94 e1       	ldi	r25, 0x14	; 20
 606:	9b 83       	std	Y+3, r25	; 0x03
 608:	94 e5       	ldi	r25, 0x54	; 84
 60a:	9c 83       	std	Y+4, r25	; 0x04
 60c:	60 58       	subi	r22, 0x80	; 128
 60e:	fe 01       	movw	r30, r28
 610:	e8 0f       	add	r30, r24
 612:	f1 1d       	adc	r31, r1
 614:	81 81       	ldd	r24, Z+1	; 0x01
 616:	86 0f       	add	r24, r22
 618:	0e 94 e9 02 	call	0x5d2	; 0x5d2 <LCD_voidWriteCommand>
 61c:	0f 90       	pop	r0
 61e:	0f 90       	pop	r0
 620:	0f 90       	pop	r0
 622:	0f 90       	pop	r0
 624:	cf 91       	pop	r28
 626:	df 91       	pop	r29
 628:	08 95       	ret

0000062a <LCD_voidCharPos>:
 62a:	1f 93       	push	r17
 62c:	18 2f       	mov	r17, r24
 62e:	86 2f       	mov	r24, r22
 630:	0e 94 f9 02 	call	0x5f2	; 0x5f2 <LCD_voidGoToXY>
 634:	81 2f       	mov	r24, r17
 636:	0e 94 79 02 	call	0x4f2	; 0x4f2 <LCD_voidWriteBitsToSend>
 63a:	1f 91       	pop	r17
 63c:	08 95       	ret

0000063e <LCD_voidWriteData>:
 63e:	1f 93       	push	r17
 640:	18 2f       	mov	r17, r24
 642:	80 e0       	ldi	r24, 0x00	; 0
 644:	63 e0       	ldi	r22, 0x03	; 3
 646:	41 e0       	ldi	r20, 0x01	; 1
 648:	0e 94 e1 00 	call	0x1c2	; 0x1c2 <DIO_voidSetPinValue>
 64c:	81 2f       	mov	r24, r17
 64e:	0e 94 79 02 	call	0x4f2	; 0x4f2 <LCD_voidWriteBitsToSend>
 652:	1f 91       	pop	r17
 654:	08 95       	ret

00000656 <LCD_voidWriteNumber>:
 656:	8f 92       	push	r8
 658:	9f 92       	push	r9
 65a:	af 92       	push	r10
 65c:	bf 92       	push	r11
 65e:	cf 92       	push	r12
 660:	df 92       	push	r13
 662:	ef 92       	push	r14
 664:	ff 92       	push	r15
 666:	0f 93       	push	r16
 668:	df 93       	push	r29
 66a:	cf 93       	push	r28
 66c:	cd b7       	in	r28, 0x3d	; 61
 66e:	de b7       	in	r29, 0x3e	; 62
 670:	2a 97       	sbiw	r28, 0x0a	; 10
 672:	0f b6       	in	r0, 0x3f	; 63
 674:	f8 94       	cli
 676:	de bf       	out	0x3e, r29	; 62
 678:	0f be       	out	0x3f, r0	; 63
 67a:	cd bf       	out	0x3d, r28	; 61
 67c:	ac 01       	movw	r20, r24
 67e:	cb 01       	movw	r24, r22
 680:	da 01       	movw	r26, r20
 682:	6c 01       	movw	r12, r24
 684:	7d 01       	movw	r14, r26
 686:	00 e0       	ldi	r16, 0x00	; 0
 688:	4e 01       	movw	r8, r28
 68a:	08 94       	sec
 68c:	81 1c       	adc	r8, r1
 68e:	91 1c       	adc	r9, r1
 690:	54 01       	movw	r10, r8
 692:	a0 0e       	add	r10, r16
 694:	b1 1c       	adc	r11, r1
 696:	c7 01       	movw	r24, r14
 698:	b6 01       	movw	r22, r12
 69a:	2a e0       	ldi	r18, 0x0A	; 10
 69c:	30 e0       	ldi	r19, 0x00	; 0
 69e:	40 e0       	ldi	r20, 0x00	; 0
 6a0:	50 e0       	ldi	r21, 0x00	; 0
 6a2:	0e 94 bb 04 	call	0x976	; 0x976 <__udivmodsi4>
 6a6:	60 5d       	subi	r22, 0xD0	; 208
 6a8:	f5 01       	movw	r30, r10
 6aa:	60 83       	st	Z, r22
 6ac:	c7 01       	movw	r24, r14
 6ae:	b6 01       	movw	r22, r12
 6b0:	2a e0       	ldi	r18, 0x0A	; 10
 6b2:	30 e0       	ldi	r19, 0x00	; 0
 6b4:	40 e0       	ldi	r20, 0x00	; 0
 6b6:	50 e0       	ldi	r21, 0x00	; 0
 6b8:	0e 94 bb 04 	call	0x976	; 0x976 <__udivmodsi4>
 6bc:	c9 01       	movw	r24, r18
 6be:	da 01       	movw	r26, r20
 6c0:	6c 01       	movw	r12, r24
 6c2:	7d 01       	movw	r14, r26
 6c4:	0f 5f       	subi	r16, 0xFF	; 255
 6c6:	c1 14       	cp	r12, r1
 6c8:	d1 04       	cpc	r13, r1
 6ca:	e1 04       	cpc	r14, r1
 6cc:	f1 04       	cpc	r15, r1
 6ce:	01 f7       	brne	.-64     	; 0x690 <LCD_voidWriteNumber+0x3a>
 6d0:	07 c0       	rjmp	.+14     	; 0x6e0 <LCD_voidWriteNumber+0x8a>
 6d2:	fe 01       	movw	r30, r28
 6d4:	e0 0f       	add	r30, r16
 6d6:	f1 1d       	adc	r31, r1
 6d8:	80 81       	ld	r24, Z
 6da:	0e 94 1f 03 	call	0x63e	; 0x63e <LCD_voidWriteData>
 6de:	01 50       	subi	r16, 0x01	; 1
 6e0:	00 23       	and	r16, r16
 6e2:	b9 f7       	brne	.-18     	; 0x6d2 <LCD_voidWriteNumber+0x7c>
 6e4:	2a 96       	adiw	r28, 0x0a	; 10
 6e6:	0f b6       	in	r0, 0x3f	; 63
 6e8:	f8 94       	cli
 6ea:	de bf       	out	0x3e, r29	; 62
 6ec:	0f be       	out	0x3f, r0	; 63
 6ee:	cd bf       	out	0x3d, r28	; 61
 6f0:	cf 91       	pop	r28
 6f2:	df 91       	pop	r29
 6f4:	0f 91       	pop	r16
 6f6:	ff 90       	pop	r15
 6f8:	ef 90       	pop	r14
 6fa:	df 90       	pop	r13
 6fc:	cf 90       	pop	r12
 6fe:	bf 90       	pop	r11
 700:	af 90       	pop	r10
 702:	9f 90       	pop	r9
 704:	8f 90       	pop	r8
 706:	08 95       	ret

00000708 <LCD_voidNumPos>:
 708:	ef 92       	push	r14
 70a:	ff 92       	push	r15
 70c:	0f 93       	push	r16
 70e:	1f 93       	push	r17
 710:	e8 2e       	mov	r14, r24
 712:	86 2f       	mov	r24, r22
 714:	0e 94 f9 02 	call	0x5f2	; 0x5f2 <LCD_voidGoToXY>
 718:	ff 24       	eor	r15, r15
 71a:	00 e0       	ldi	r16, 0x00	; 0
 71c:	10 e0       	ldi	r17, 0x00	; 0
 71e:	c8 01       	movw	r24, r16
 720:	b7 01       	movw	r22, r14
 722:	0e 94 2b 03 	call	0x656	; 0x656 <LCD_voidWriteNumber>
 726:	1f 91       	pop	r17
 728:	0f 91       	pop	r16
 72a:	ff 90       	pop	r15
 72c:	ef 90       	pop	r14
 72e:	08 95       	ret

00000730 <LCD_voidWriteSpecialCharToCGRAM>:
 730:	df 92       	push	r13
 732:	ef 92       	push	r14
 734:	ff 92       	push	r15
 736:	0f 93       	push	r16
 738:	1f 93       	push	r17
 73a:	cf 93       	push	r28
 73c:	df 93       	push	r29
 73e:	8c 01       	movw	r16, r24
 740:	f6 2e       	mov	r15, r22
 742:	e4 2e       	mov	r14, r20
 744:	d2 2e       	mov	r13, r18
 746:	86 2f       	mov	r24, r22
 748:	88 0f       	add	r24, r24
 74a:	88 0f       	add	r24, r24
 74c:	88 0f       	add	r24, r24
 74e:	80 5c       	subi	r24, 0xC0	; 192
 750:	0e 94 e9 02 	call	0x5d2	; 0x5d2 <LCD_voidWriteCommand>
 754:	c0 e0       	ldi	r28, 0x00	; 0
 756:	d0 e0       	ldi	r29, 0x00	; 0
 758:	f8 01       	movw	r30, r16
 75a:	ec 0f       	add	r30, r28
 75c:	fd 1f       	adc	r31, r29
 75e:	80 81       	ld	r24, Z
 760:	0e 94 1f 03 	call	0x63e	; 0x63e <LCD_voidWriteData>
 764:	21 96       	adiw	r28, 0x01	; 1
 766:	c8 30       	cpi	r28, 0x08	; 8
 768:	d1 05       	cpc	r29, r1
 76a:	b1 f7       	brne	.-20     	; 0x758 <LCD_voidWriteSpecialCharToCGRAM+0x28>
 76c:	8e 2d       	mov	r24, r14
 76e:	6d 2d       	mov	r22, r13
 770:	0e 94 f9 02 	call	0x5f2	; 0x5f2 <LCD_voidGoToXY>
 774:	8f 2d       	mov	r24, r15
 776:	0e 94 1f 03 	call	0x63e	; 0x63e <LCD_voidWriteData>
 77a:	df 91       	pop	r29
 77c:	cf 91       	pop	r28
 77e:	1f 91       	pop	r17
 780:	0f 91       	pop	r16
 782:	ff 90       	pop	r15
 784:	ef 90       	pop	r14
 786:	df 90       	pop	r13
 788:	08 95       	ret

0000078a <LCD_voidWriteString>:
 78a:	cf 93       	push	r28
 78c:	df 93       	push	r29
 78e:	ec 01       	movw	r28, r24
 790:	02 c0       	rjmp	.+4      	; 0x796 <LCD_voidWriteString+0xc>
 792:	0e 94 1f 03 	call	0x63e	; 0x63e <LCD_voidWriteData>
 796:	89 91       	ld	r24, Y+
 798:	88 23       	and	r24, r24
 79a:	d9 f7       	brne	.-10     	; 0x792 <LCD_voidWriteString+0x8>
 79c:	df 91       	pop	r29
 79e:	cf 91       	pop	r28
 7a0:	08 95       	ret

000007a2 <LCD_voidStringPos>:
 7a2:	0f 93       	push	r16
 7a4:	1f 93       	push	r17
 7a6:	16 2f       	mov	r17, r22
 7a8:	04 2f       	mov	r16, r20
 7aa:	0e 94 c5 03 	call	0x78a	; 0x78a <LCD_voidWriteString>
 7ae:	81 2f       	mov	r24, r17
 7b0:	60 2f       	mov	r22, r16
 7b2:	0e 94 f9 02 	call	0x5f2	; 0x5f2 <LCD_voidGoToXY>
 7b6:	1f 91       	pop	r17
 7b8:	0f 91       	pop	r16
 7ba:	08 95       	ret

000007bc <LCD_voidInit>:
 7bc:	0f 93       	push	r16
 7be:	1f 93       	push	r17
 7c0:	8c e2       	ldi	r24, 0x2C	; 44
 7c2:	91 e0       	ldi	r25, 0x01	; 1
 7c4:	20 e9       	ldi	r18, 0x90	; 144
 7c6:	31 e0       	ldi	r19, 0x01	; 1
 7c8:	f9 01       	movw	r30, r18
 7ca:	31 97       	sbiw	r30, 0x01	; 1
 7cc:	f1 f7       	brne	.-4      	; 0x7ca <LCD_voidInit+0xe>
 7ce:	01 97       	sbiw	r24, 0x01	; 1
 7d0:	d9 f7       	brne	.-10     	; 0x7c8 <LCD_voidInit+0xc>
 7d2:	80 e0       	ldi	r24, 0x00	; 0
 7d4:	63 e0       	ldi	r22, 0x03	; 3
 7d6:	41 e0       	ldi	r20, 0x01	; 1
 7d8:	0e 94 6b 00 	call	0xd6	; 0xd6 <DIO_voidSetPinDirection>
 7dc:	80 e0       	ldi	r24, 0x00	; 0
 7de:	62 e0       	ldi	r22, 0x02	; 2
 7e0:	41 e0       	ldi	r20, 0x01	; 1
 7e2:	0e 94 6b 00 	call	0xd6	; 0xd6 <DIO_voidSetPinDirection>
 7e6:	81 e0       	ldi	r24, 0x01	; 1
 7e8:	60 e0       	ldi	r22, 0x00	; 0
 7ea:	41 e0       	ldi	r20, 0x01	; 1
 7ec:	0e 94 6b 00 	call	0xd6	; 0xd6 <DIO_voidSetPinDirection>
 7f0:	81 e0       	ldi	r24, 0x01	; 1
 7f2:	61 e0       	ldi	r22, 0x01	; 1
 7f4:	41 e0       	ldi	r20, 0x01	; 1
 7f6:	0e 94 6b 00 	call	0xd6	; 0xd6 <DIO_voidSetPinDirection>
 7fa:	81 e0       	ldi	r24, 0x01	; 1
 7fc:	62 e0       	ldi	r22, 0x02	; 2
 7fe:	41 e0       	ldi	r20, 0x01	; 1
 800:	0e 94 6b 00 	call	0xd6	; 0xd6 <DIO_voidSetPinDirection>
 804:	81 e0       	ldi	r24, 0x01	; 1
 806:	64 e0       	ldi	r22, 0x04	; 4
 808:	41 e0       	ldi	r20, 0x01	; 1
 80a:	0e 94 6b 00 	call	0xd6	; 0xd6 <DIO_voidSetPinDirection>
 80e:	82 e0       	ldi	r24, 0x02	; 2
 810:	0e 94 e9 02 	call	0x5d2	; 0x5d2 <LCD_voidWriteCommand>
 814:	88 e2       	ldi	r24, 0x28	; 40
 816:	0e 94 e9 02 	call	0x5d2	; 0x5d2 <LCD_voidWriteCommand>
 81a:	00 e4       	ldi	r16, 0x40	; 64
 81c:	1f e1       	ldi	r17, 0x1F	; 31
 81e:	c8 01       	movw	r24, r16
 820:	01 97       	sbiw	r24, 0x01	; 1
 822:	f1 f7       	brne	.-4      	; 0x820 <LCD_voidInit+0x64>
 824:	8c e0       	ldi	r24, 0x0C	; 12
 826:	0e 94 e9 02 	call	0x5d2	; 0x5d2 <LCD_voidWriteCommand>
 82a:	c8 01       	movw	r24, r16
 82c:	01 97       	sbiw	r24, 0x01	; 1
 82e:	f1 f7       	brne	.-4      	; 0x82c <LCD_voidInit+0x70>
 830:	81 e0       	ldi	r24, 0x01	; 1
 832:	0e 94 e9 02 	call	0x5d2	; 0x5d2 <LCD_voidWriteCommand>
 836:	c8 01       	movw	r24, r16
 838:	01 97       	sbiw	r24, 0x01	; 1
 83a:	f1 f7       	brne	.-4      	; 0x838 <LCD_voidInit+0x7c>
 83c:	1f 91       	pop	r17
 83e:	0f 91       	pop	r16
 840:	08 95       	ret

00000842 <TIMER0_voidInit>:
 842:	83 b7       	in	r24, 0x33	; 51
 844:	80 64       	ori	r24, 0x40	; 64
 846:	83 bf       	out	0x33, r24	; 51
 848:	83 b7       	in	r24, 0x33	; 51
 84a:	88 60       	ori	r24, 0x08	; 8
 84c:	83 bf       	out	0x33, r24	; 51
 84e:	83 b7       	in	r24, 0x33	; 51
 850:	80 62       	ori	r24, 0x20	; 32
 852:	83 bf       	out	0x33, r24	; 51
 854:	83 b7       	in	r24, 0x33	; 51
 856:	8f 7e       	andi	r24, 0xEF	; 239
 858:	83 bf       	out	0x33, r24	; 51
 85a:	80 e4       	ldi	r24, 0x40	; 64
 85c:	8c bf       	out	0x3c, r24	; 60
 85e:	83 b7       	in	r24, 0x33	; 51
 860:	8e 7f       	andi	r24, 0xFE	; 254
 862:	83 bf       	out	0x33, r24	; 51
 864:	83 b7       	in	r24, 0x33	; 51
 866:	82 60       	ori	r24, 0x02	; 2
 868:	83 bf       	out	0x33, r24	; 51
 86a:	83 b7       	in	r24, 0x33	; 51
 86c:	8b 7f       	andi	r24, 0xFB	; 251
 86e:	83 bf       	out	0x33, r24	; 51
 870:	08 95       	ret

00000872 <TIMER0_voidDisable>:
 872:	83 b7       	in	r24, 0x33	; 51
 874:	8e 7f       	andi	r24, 0xFE	; 254
 876:	83 bf       	out	0x33, r24	; 51
 878:	83 b7       	in	r24, 0x33	; 51
 87a:	8d 7f       	andi	r24, 0xFD	; 253
 87c:	83 bf       	out	0x33, r24	; 51
 87e:	83 b7       	in	r24, 0x33	; 51
 880:	8b 7f       	andi	r24, 0xFB	; 251
 882:	83 bf       	out	0x33, r24	; 51
 884:	08 95       	ret

00000886 <TIMER0_voidSetCallBack>:
 886:	00 97       	sbiw	r24, 0x00	; 0
 888:	21 f0       	breq	.+8      	; 0x892 <TIMER0_voidSetCallBack+0xc>
 88a:	90 93 7e 00 	sts	0x007E, r25
 88e:	80 93 7d 00 	sts	0x007D, r24
 892:	08 95       	ret

00000894 <__vector_11>:
 894:	1f 92       	push	r1
 896:	0f 92       	push	r0
 898:	0f b6       	in	r0, 0x3f	; 63
 89a:	0f 92       	push	r0
 89c:	11 24       	eor	r1, r1
 89e:	2f 93       	push	r18
 8a0:	3f 93       	push	r19
 8a2:	4f 93       	push	r20
 8a4:	5f 93       	push	r21
 8a6:	6f 93       	push	r22
 8a8:	7f 93       	push	r23
 8aa:	8f 93       	push	r24
 8ac:	9f 93       	push	r25
 8ae:	af 93       	push	r26
 8b0:	bf 93       	push	r27
 8b2:	ef 93       	push	r30
 8b4:	ff 93       	push	r31
 8b6:	e0 91 7d 00 	lds	r30, 0x007D
 8ba:	f0 91 7e 00 	lds	r31, 0x007E
 8be:	09 95       	icall
 8c0:	ff 91       	pop	r31
 8c2:	ef 91       	pop	r30
 8c4:	bf 91       	pop	r27
 8c6:	af 91       	pop	r26
 8c8:	9f 91       	pop	r25
 8ca:	8f 91       	pop	r24
 8cc:	7f 91       	pop	r23
 8ce:	6f 91       	pop	r22
 8d0:	5f 91       	pop	r21
 8d2:	4f 91       	pop	r20
 8d4:	3f 91       	pop	r19
 8d6:	2f 91       	pop	r18
 8d8:	0f 90       	pop	r0
 8da:	0f be       	out	0x3f, r0	; 63
 8dc:	0f 90       	pop	r0
 8de:	1f 90       	pop	r1
 8e0:	18 95       	reti

000008e2 <Timer1_voidInit>:
 8e2:	8e b5       	in	r24, 0x2e	; 46
 8e4:	8e 7f       	andi	r24, 0xFE	; 254
 8e6:	8e bd       	out	0x2e, r24	; 46
 8e8:	8e b5       	in	r24, 0x2e	; 46
 8ea:	82 60       	ori	r24, 0x02	; 2
 8ec:	8e bd       	out	0x2e, r24	; 46
 8ee:	8e b5       	in	r24, 0x2e	; 46
 8f0:	8b 7f       	andi	r24, 0xFB	; 251
 8f2:	8e bd       	out	0x2e, r24	; 46
 8f4:	1e bc       	out	0x2e, r1	; 46
 8f6:	1d bc       	out	0x2d, r1	; 45
 8f8:	08 95       	ret

000008fa <Timer1_voidClear>:
 8fa:	1e bc       	out	0x2e, r1	; 46
 8fc:	1d bc       	out	0x2d, r1	; 45
 8fe:	08 95       	ret

00000900 <Timer1_voidSetCompChA>:
 900:	9c bd       	out	0x2c, r25	; 44
 902:	8b bd       	out	0x2b, r24	; 43
 904:	08 95       	ret

00000906 <Timer1_u16GetInputCaptureReading>:
 906:	26 b5       	in	r18, 0x26	; 38
 908:	37 b5       	in	r19, 0x27	; 39
 90a:	c9 01       	movw	r24, r18
 90c:	08 95       	ret

0000090e <Timer1_u16GetTimerReading>:
 90e:	2d b5       	in	r18, 0x2d	; 45
 910:	3e b5       	in	r19, 0x2e	; 46
 912:	c9 01       	movw	r24, r18
 914:	08 95       	ret

00000916 <Timer1_voidICUSetCallBack>:
 916:	00 97       	sbiw	r24, 0x00	; 0
 918:	21 f0       	breq	.+8      	; 0x922 <Timer1_voidICUSetCallBack+0xc>
 91a:	90 93 80 00 	sts	0x0080, r25
 91e:	80 93 7f 00 	sts	0x007F, r24
 922:	08 95       	ret

00000924 <__vector_6>:
 924:	1f 92       	push	r1
 926:	0f 92       	push	r0
 928:	0f b6       	in	r0, 0x3f	; 63
 92a:	0f 92       	push	r0
 92c:	11 24       	eor	r1, r1
 92e:	2f 93       	push	r18
 930:	3f 93       	push	r19
 932:	4f 93       	push	r20
 934:	5f 93       	push	r21
 936:	6f 93       	push	r22
 938:	7f 93       	push	r23
 93a:	8f 93       	push	r24
 93c:	9f 93       	push	r25
 93e:	af 93       	push	r26
 940:	bf 93       	push	r27
 942:	ef 93       	push	r30
 944:	ff 93       	push	r31
 946:	e0 91 7f 00 	lds	r30, 0x007F
 94a:	f0 91 80 00 	lds	r31, 0x0080
 94e:	30 97       	sbiw	r30, 0x00	; 0
 950:	09 f0       	breq	.+2      	; 0x954 <__vector_6+0x30>
 952:	09 95       	icall
 954:	ff 91       	pop	r31
 956:	ef 91       	pop	r30
 958:	bf 91       	pop	r27
 95a:	af 91       	pop	r26
 95c:	9f 91       	pop	r25
 95e:	8f 91       	pop	r24
 960:	7f 91       	pop	r23
 962:	6f 91       	pop	r22
 964:	5f 91       	pop	r21
 966:	4f 91       	pop	r20
 968:	3f 91       	pop	r19
 96a:	2f 91       	pop	r18
 96c:	0f 90       	pop	r0
 96e:	0f be       	out	0x3f, r0	; 63
 970:	0f 90       	pop	r0
 972:	1f 90       	pop	r1
 974:	18 95       	reti

00000976 <__udivmodsi4>:
 976:	a1 e2       	ldi	r26, 0x21	; 33
 978:	1a 2e       	mov	r1, r26
 97a:	aa 1b       	sub	r26, r26
 97c:	bb 1b       	sub	r27, r27
 97e:	fd 01       	movw	r30, r26
 980:	0d c0       	rjmp	.+26     	; 0x99c <__udivmodsi4_ep>

00000982 <__udivmodsi4_loop>:
 982:	aa 1f       	adc	r26, r26
 984:	bb 1f       	adc	r27, r27
 986:	ee 1f       	adc	r30, r30
 988:	ff 1f       	adc	r31, r31
 98a:	a2 17       	cp	r26, r18
 98c:	b3 07       	cpc	r27, r19
 98e:	e4 07       	cpc	r30, r20
 990:	f5 07       	cpc	r31, r21
 992:	20 f0       	brcs	.+8      	; 0x99c <__udivmodsi4_ep>
 994:	a2 1b       	sub	r26, r18
 996:	b3 0b       	sbc	r27, r19
 998:	e4 0b       	sbc	r30, r20
 99a:	f5 0b       	sbc	r31, r21

0000099c <__udivmodsi4_ep>:
 99c:	66 1f       	adc	r22, r22
 99e:	77 1f       	adc	r23, r23
 9a0:	88 1f       	adc	r24, r24
 9a2:	99 1f       	adc	r25, r25
 9a4:	1a 94       	dec	r1
 9a6:	69 f7       	brne	.-38     	; 0x982 <__udivmodsi4_loop>
 9a8:	60 95       	com	r22
 9aa:	70 95       	com	r23
 9ac:	80 95       	com	r24
 9ae:	90 95       	com	r25
 9b0:	9b 01       	movw	r18, r22
 9b2:	ac 01       	movw	r20, r24
 9b4:	bd 01       	movw	r22, r26
 9b6:	cf 01       	movw	r24, r30
 9b8:	08 95       	ret

000009ba <_exit>:
 9ba:	f8 94       	cli

000009bc <__stop_program>:
 9bc:	ff cf       	rjmp	.-2      	; 0x9bc <__stop_program>
